target datalayout = "e-m:e-p270:32:32-p271:32:32-p272:64:64-i64:64-i128:128-f80:128-n8:16:32:64-S128"
target triple = "x86_64-pc-linux-gnu"

@_ZZN7testing8internal18GetFailureReporterEvE16failure_reporter = internal global ptr null, align 8
@_ZGVZN7testing8internal18GetFailureReporterEvE16failure_reporter = internal global i64 0, align 8

; Function Attrs: inlinehint mustprogress nounwind uwtable
define linkonce_odr dso_local void @_ZN7testing8internal24FailureReporterInterfaceC2Ev(ptr noundef nonnull align 8 dereferenceable(8) %0) unnamed_addr #10 comdat align 2 {
  %2 = alloca ptr, align 8
  store ptr %0, ptr %2, align 8, !tbaa !57
  %3 = load ptr, ptr %2, align 8
  store ptr getelementptr inbounds inrange(-16, 24) ({ [5 x ptr] }, ptr @_ZTVN7testing8internal24FailureReporterInterfaceE, i32 0, i32 0, i32 2), ptr %3, align 8, !tbaa !15
  ret void
}

; Function Attrs: inlinehint mustprogress nounwind uwtable
define linkonce_odr dso_local void @_ZN7testing8internal25GoogleTestFailureReporterC2Ev(ptr noundef nonnull align 8 dereferenceable(8) %0) unnamed_addr #10 comdat align 2 {
  %2 = alloca ptr, align 8
  store ptr %0, ptr %2, align 8, !tbaa !59
  %3 = load ptr, ptr %2, align 8
  call void @_ZN7testing8internal24FailureReporterInterfaceC2Ev(ptr noundef nonnull align 8 dereferenceable(8) %3) #3
  store ptr getelementptr inbounds inrange(-16, 24) ({ [5 x ptr] }, ptr @_ZTVN7testing8internal25GoogleTestFailureReporterE, i32 0, i32 0, i32 2), ptr %3, align 8, !tbaa !15
  ret void
}

; Function Attrs: mustprogress uwtable
define dso_local noundef ptr @_ZN7testing8internal18GetFailureReporterEv() #4 personality ptr @__gxx_personality_v0 {
  %1 = alloca ptr, align 8
  %2 = alloca i32, align 4
  %3 = load atomic i8, ptr @_ZGVZN7testing8internal18GetFailureReporterEvE16failure_reporter acquire, align 8
  %4 = icmp eq i8 %3, 0
  br i1 %4, label %5, label %12, !prof !56

5:                                                ; preds = %0
  %6 = call i32 @__cxa_guard_acquire(ptr @_ZGVZN7testing8internal18GetFailureReporterEvE16failure_reporter) #3
  %7 = icmp ne i32 %6, 0
  br i1 %7, label %8, label %12

8:                                                ; preds = %5
  %9 = invoke noalias noundef nonnull ptr @_Znwm(i64 noundef 8) #27
          to label %10 unwind label %14

10:                                               ; preds = %8
  call void @llvm.memset.p0.i64(ptr align 8 %9, i8 0, i64 8, i1 false)
  call void @_ZN7testing8internal25GoogleTestFailureReporterC2Ev(ptr noundef nonnull align 8 dereferenceable(8) %9) #3
  store ptr %9, ptr @_ZZN7testing8internal18GetFailureReporterEvE16failure_reporter, align 8, !tbaa !57
  %11 = call ptr @llvm.invariant.start.p0(i64 8, ptr @_ZZN7testing8internal18GetFailureReporterEvE16failure_reporter)
  call void @__cxa_guard_release(ptr @_ZGVZN7testing8internal18GetFailureReporterEvE16failure_reporter) #3
  br label %12

12:                                               ; preds = %10, %5, %0
  %13 = load ptr, ptr @_ZZN7testing8internal18GetFailureReporterEvE16failure_reporter, align 8, !tbaa !57
  ret ptr %13

14:                                               ; preds = %8
  %15 = landingpad { ptr, i32 }
          cleanup
  %16 = extractvalue { ptr, i32 } %15, 0
  store ptr %16, ptr %1, align 8
  %17 = extractvalue { ptr, i32 } %15, 1
  store i32 %17, ptr %2, align 4
  call void @__cxa_guard_abort(ptr @_ZGVZN7testing8internal18GetFailureReporterEvE16failure_reporter) #3
  br label %18

18:                                               ; preds = %14
  %19 = load ptr, ptr %1, align 8
  %20 = load i32, ptr %2, align 4
  %21 = insertvalue { ptr, i32 } poison, ptr %19, 0
  %22 = insertvalue { ptr, i32 } %21, i32 %20, 1
  resume { ptr, i32 } %22
}